target datalayout = "e-m:e-p270:32:32-p271:32:32-p272:64:64-i64:64-i128:128-f80:128-n8:16:32:64-S128"
target triple = "x86_64-pc-linux-gnu"

%struct._phpdbg_command_t = type { ptr, i64, ptr, i64, i8, ptr, ptr, ptr, ptr, i8 }
%struct._zend_phpdbg_globals = type { [11 x %struct._zend_array], %struct._zend_array, %struct._zend_array, ptr, ptr, %struct.phpdbg_frame_t, i32, ptr, %struct.phpdbg_lexer_data, ptr, %struct.sigaction, i32, i64, %struct.phpdbg_btree, %struct.phpdbg_btree, %struct._zend_array, %struct._zend_array, %struct._zend_array, %struct._zend_array, ptr, ptr, i8, ptr, ptr, ptr, i64, ptr, %struct._zval_struct, i32, i32, i8, i8, ptr, ptr, ptr, %struct._zend_array, ptr, ptr, ptr, [3 x %struct.anon.10], ptr, %struct.anon.11, i64, [2 x ptr], [3 x ptr], ptr, i8, ptr, ptr, [500 x i8], i32, %struct.phpdbg_signal_safe_mem, ptr, i64, ptr, i64 }
%struct.phpdbg_frame_t = type { i32, ptr, ptr }
%struct.phpdbg_lexer_data = type { i32, ptr, ptr, ptr, ptr, i32 }
%struct.sigaction = type { %union.anon.4, %struct.__sigset_t, i32, ptr }
%union.anon.4 = type { ptr }
%struct.__sigset_t = type { [16 x i64] }
%struct.phpdbg_btree = type { i64, i64, i8, ptr }
%struct._zval_struct = type { %union._zend_value, %union.anon.6, %union.anon.9 }
%union._zend_value = type { i64 }
%union.anon.6 = type { i32 }
%union.anon.9 = type { i32 }
%struct._zend_array = type { %struct._zend_refcounted_h, %union.anon.1, i32, %union.anon.3, i32, i32, i32, i32, i64, ptr }
%struct._zend_refcounted_h = type { i32, %union.anon }
%union.anon = type { i32 }
%union.anon.1 = type { i32 }
%union.anon.3 = type { ptr }
%struct.anon.10 = type { i32 }
%struct.anon.11 = type { i8, i32, i32, ptr, i32 }
%struct.phpdbg_signal_safe_mem = type { ptr, i8, ptr, ptr }
%struct._phpdbg_help_text_t = type { ptr, ptr }

@phpdbg_prompt_commands = external constant [0 x %struct._phpdbg_command_t], align 8
@.str.12 = private unnamed_addr constant [1 x i8] zeroinitializer, align 1
@phpdbg_globals = external global %struct._zend_phpdbg_globals, align 8
@.str.17 = private unnamed_addr constant [64 x i8] c"Below are the aliased, short versions of all supported commands\00", align 1
@.str.18 = private unnamed_addr constant [18 x i8] c" %c     %-20s  %s\00", align 1
@.str.19 = private unnamed_addr constant [21 x i8] c" %c %c   %s %-*s  %s\00", align 1
@.str.20 = private unnamed_addr constant [2 x i8] c"h\00", align 1
@.str.21 = private unnamed_addr constant [19 x i8] c" %c     %-20s  %s\0A\00", align 1
@.str.22 = private unnamed_addr constant [9 x i8] c"aliases!\00", align 1

; Function Attrs: nounwind uwtable
define internal ptr @get_help(ptr noundef %0) #0 {
  %2 = alloca ptr, align 8
  %3 = alloca ptr, align 8
  %4 = alloca ptr, align 8
  store ptr %0, ptr %3, align 8
  store ptr @phpdbg_help_text, ptr %4, align 8
  br label %5

5:                                                ; preds = %22, %1
  %6 = load ptr, ptr %4, align 8
  %7 = getelementptr inbounds %struct._phpdbg_help_text_t, ptr %6, i32 0, i32 0
  %8 = load ptr, ptr %7, align 8
  %9 = icmp ne ptr %8, null
  br i1 %9, label %10, label %25

10:                                               ; preds = %5
  %11 = load ptr, ptr %4, align 8
  %12 = getelementptr inbounds %struct._phpdbg_help_text_t, ptr %11, i32 0, i32 0
  %13 = load ptr, ptr %12, align 8
  %14 = load ptr, ptr %3, align 8
  %15 = call i32 @strcmp(ptr noundef %13, ptr noundef %14) #6
  %16 = icmp ne i32 %15, 0
  br i1 %16, label %21, label %17

17:                                               ; preds = %10
  %18 = load ptr, ptr %4, align 8
  %19 = getelementptr inbounds %struct._phpdbg_help_text_t, ptr %18, i32 0, i32 1
  %20 = load ptr, ptr %19, align 8
  store ptr %20, ptr %2, align 8
  br label %26

21:                                               ; preds = %10
  br label %22

22:                                               ; preds = %21
  %23 = load ptr, ptr %4, align 8
  %24 = getelementptr inbounds %struct._phpdbg_help_text_t, ptr %23, i32 1
  store ptr %24, ptr %4, align 8
  br label %5

25:                                               ; preds = %5
  store ptr @.str.12, ptr %2, align 8
  br label %26

26:                                               ; preds = %25, %17
  %27 = load ptr, ptr %2, align 8
  ret ptr %27
}

; Function Attrs: nounwind uwtable
define internal i32 @get_command(ptr noundef %0, i64 noundef %1, ptr noundef %2, ptr noundef %3) #0 {
  %5 = alloca ptr, align 8
  %6 = alloca i64, align 8
  %7 = alloca ptr, align 8
  %8 = alloca ptr, align 8
  %9 = alloca ptr, align 8
  %10 = alloca i32, align 4
  store ptr %0, ptr %5, align 8
  store i64 %1, ptr %6, align 8
  store ptr %2, ptr %7, align 8
  store ptr %3, ptr %8, align 8
  store i32 0, ptr %10, align 4
  %11 = load i64, ptr %6, align 8
  %12 = icmp eq i64 %11, 1
  br i1 %12, label %13, label %47

13:                                               ; preds = %4
  %14 = load ptr, ptr %8, align 8
  store ptr %14, ptr %9, align 8
  br label %15

15:                                               ; preds = %43, %13
  %16 = load ptr, ptr %9, align 8
  %17 = getelementptr inbounds %struct._phpdbg_command_t, ptr %16, i32 0, i32 0
  %18 = load ptr, ptr %17, align 8
  %19 = icmp ne ptr %18, null
  br i1 %19, label %20, label %46

20:                                               ; preds = %15
  %21 = load ptr, ptr %9, align 8
  %22 = getelementptr inbounds %struct._phpdbg_command_t, ptr %21, i32 0, i32 4
  %23 = load i8, ptr %22, align 8
  %24 = sext i8 %23 to i32
  %25 = load ptr, ptr %5, align 8
  %26 = getelementptr inbounds i8, ptr %25, i64 0
  %27 = load i8, ptr %26, align 1
  %28 = sext i8 %27 to i32
  %29 = icmp eq i32 %24, %28
  br i1 %29, label %30, label %42

30:                                               ; preds = %20
  %31 = load i32, ptr %10, align 4
  %32 = add i32 %31, 1
  store i32 %32, ptr %10, align 4
  %33 = load i32, ptr %10, align 4
  %34 = icmp eq i32 %33, 1
  br i1 %34, label %35, label %41

35:                                               ; preds = %30
  %36 = load ptr, ptr %7, align 8
  %37 = icmp ne ptr %36, null
  br i1 %37, label %38, label %41

38:                                               ; preds = %35
  %39 = load ptr, ptr %9, align 8
  %40 = load ptr, ptr %7, align 8
  store ptr %39, ptr %40, align 8
  br label %41

41:                                               ; preds = %38, %35, %30
  br label %42

42:                                               ; preds = %41, %20
  br label %43

43:                                               ; preds = %42
  %44 = load ptr, ptr %9, align 8
  %45 = getelementptr inbounds %struct._phpdbg_command_t, ptr %44, i32 1
  store ptr %45, ptr %9, align 8
  br label %15

46:                                               ; preds = %15
  br label %79

47:                                               ; preds = %4
  %48 = load ptr, ptr %8, align 8
  store ptr %48, ptr %9, align 8
  br label %49

49:                                               ; preds = %75, %47
  %50 = load ptr, ptr %9, align 8
  %51 = getelementptr inbounds %struct._phpdbg_command_t, ptr %50, i32 0, i32 0
  %52 = load ptr, ptr %51, align 8
  %53 = icmp ne ptr %52, null
  br i1 %53, label %54, label %78

54:                                               ; preds = %49
  %55 = load ptr, ptr %9, align 8
  %56 = getelementptr inbounds %struct._phpdbg_command_t, ptr %55, i32 0, i32 0
  %57 = load ptr, ptr %56, align 8
  %58 = load ptr, ptr %5, align 8
  %59 = load i64, ptr %6, align 8
  %60 = call i32 @strncmp(ptr noundef %57, ptr noundef %58, i64 noundef %59) #6
  %61 = icmp ne i32 %60, 0
  br i1 %61, label %74, label %62

62:                                               ; preds = %54
  %63 = load i32, ptr %10, align 4
  %64 = add i32 %63, 1
  store i32 %64, ptr %10, align 4
  %65 = load i32, ptr %10, align 4
  %66 = icmp eq i32 %65, 1
  br i1 %66, label %67, label %73

67:                                               ; preds = %62
  %68 = load ptr, ptr %7, align 8
  %69 = icmp ne ptr %68, null
  br i1 %69, label %70, label %73

70:                                               ; preds = %67
  %71 = load ptr, ptr %9, align 8
  %72 = load ptr, ptr %7, align 8
  store ptr %71, ptr %72, align 8
  br label %73

73:                                               ; preds = %70, %67, %62
  br label %74

74:                                               ; preds = %73, %54
  br label %75

75:                                               ; preds = %74
  %76 = load ptr, ptr %9, align 8
  %77 = getelementptr inbounds %struct._phpdbg_command_t, ptr %76, i32 1
  store ptr %77, ptr %9, align 8
  br label %49

78:                                               ; preds = %49
  br label %79

79:                                               ; preds = %78, %46
  %80 = load i32, ptr %10, align 4
  ret i32 %80
}

; Function Attrs: nounwind uwtable
define hidden i32 @phpdbg_do_help_aliases(ptr noundef %0) #0 {
  %2 = alloca ptr, align 8
  %3 = alloca ptr, align 8
  %4 = alloca ptr, align 8
  %5 = alloca i32, align 4
  store ptr %0, ptr %2, align 8
  %6 = load i32, ptr getelementptr inbounds (%struct._zend_phpdbg_globals, ptr @phpdbg_globals, i32 0, i32 39, i64 1), align 4
  %7 = call i32 (i32, i32, ptr, ...) @phpdbg_print(i32 noundef 3, i32 noundef %6, ptr noundef @.str.17)
  store ptr @phpdbg_prompt_commands, ptr %3, align 8
  br label %8

8:                                                ; preds = %89, %1
  %9 = load ptr, ptr %3, align 8
  %10 = getelementptr inbounds %struct._phpdbg_command_t, ptr %9, i32 0, i32 0
  %11 = load ptr, ptr %10, align 8
  %12 = icmp ne ptr %11, null
  br i1 %12, label %13, label %92

13:                                               ; preds = %8
  %14 = load ptr, ptr %3, align 8
  %15 = getelementptr inbounds %struct._phpdbg_command_t, ptr %14, i32 0, i32 4
  %16 = load i8, ptr %15, align 8
  %17 = sext i8 %16 to i32
  %18 = icmp ne i32 %17, 0
  br i1 %18, label %19, label %88

19:                                               ; preds = %13
  %20 = load ptr, ptr %3, align 8
  %21 = getelementptr inbounds %struct._phpdbg_command_t, ptr %20, i32 0, i32 4
  %22 = load i8, ptr %21, align 8
  %23 = sext i8 %22 to i32
  %24 = icmp ne i32 %23, 104
  br i1 %24, label %25, label %88

25:                                               ; preds = %19
  %26 = load i32, ptr getelementptr inbounds (%struct._zend_phpdbg_globals, ptr @phpdbg_globals, i32 0, i32 39, i64 1), align 4
  %27 = load ptr, ptr %3, align 8
  %28 = getelementptr inbounds %struct._phpdbg_command_t, ptr %27, i32 0, i32 4
  %29 = load i8, ptr %28, align 8
  %30 = sext i8 %29 to i32
  %31 = load ptr, ptr %3, align 8
  %32 = getelementptr inbounds %struct._phpdbg_command_t, ptr %31, i32 0, i32 0
  %33 = load ptr, ptr %32, align 8
  %34 = load ptr, ptr %3, align 8
  %35 = getelementptr inbounds %struct._phpdbg_command_t, ptr %34, i32 0, i32 2
  %36 = load ptr, ptr %35, align 8
  %37 = call i32 (i32, i32, ptr, ...) @phpdbg_print(i32 noundef 3, i32 noundef %26, ptr noundef @.str.18, i32 noundef %30, ptr noundef %33, ptr noundef %36)
  %38 = load ptr, ptr %3, align 8
  %39 = getelementptr inbounds %struct._phpdbg_command_t, ptr %38, i32 0, i32 6
  %40 = load ptr, ptr %39, align 8
  %41 = icmp ne ptr %40, null
  br i1 %41, label %42, label %87

42:                                               ; preds = %25
  %43 = load ptr, ptr %3, align 8
  %44 = getelementptr inbounds %struct._phpdbg_command_t, ptr %43, i32 0, i32 1
  %45 = load i64, ptr %44, align 8
  %46 = sub i64 19, %45
  %47 = trunc i64 %46 to i32
  store i32 %47, ptr %5, align 4
  %48 = load ptr, ptr %3, align 8
  %49 = getelementptr inbounds %struct._phpdbg_command_t, ptr %48, i32 0, i32 6
  %50 = load ptr, ptr %49, align 8
  store ptr %50, ptr %4, align 8
  br label %51

51:                                               ; preds = %83, %42
  %52 = load ptr, ptr %4, align 8
  %53 = getelementptr inbounds %struct._phpdbg_command_t, ptr %52, i32 0, i32 4
  %54 = load i8, ptr %53, align 8
  %55 = icmp ne i8 %54, 0
  br i1 %55, label %56, label %86

56:                                               ; preds = %51
  %57 = load ptr, ptr %4, align 8
  %58 = getelementptr inbounds %struct._phpdbg_command_t, ptr %57, i32 0, i32 4
  %59 = load i8, ptr %58, align 8
  %60 = icmp ne i8 %59, 0
  br i1 %60, label %61, label %82

61:                                               ; preds = %56
  %62 = load i32, ptr getelementptr inbounds (%struct._zend_phpdbg_globals, ptr @phpdbg_globals, i32 0, i32 39, i64 1), align 4
  %63 = load ptr, ptr %3, align 8
  %64 = getelementptr inbounds %struct._phpdbg_command_t, ptr %63, i32 0, i32 4
  %65 = load i8, ptr %64, align 8
  %66 = sext i8 %65 to i32
  %67 = load ptr, ptr %4, align 8
  %68 = getelementptr inbounds %struct._phpdbg_command_t, ptr %67, i32 0, i32 4
  %69 = load i8, ptr %68, align 8
  %70 = sext i8 %69 to i32
  %71 = load ptr, ptr %3, align 8
  %72 = getelementptr inbounds %struct._phpdbg_command_t, ptr %71, i32 0, i32 0
  %73 = load ptr, ptr %72, align 8
  %74 = load i32, ptr %5, align 4
  %75 = load ptr, ptr %4, align 8
  %76 = getelementptr inbounds %struct._phpdbg_command_t, ptr %75, i32 0, i32 0
  %77 = load ptr, ptr %76, align 8
  %78 = load ptr, ptr %4, align 8
  %79 = getelementptr inbounds %struct._phpdbg_command_t, ptr %78, i32 0, i32 2
  %80 = load ptr, ptr %79, align 8
  %81 = call i32 (i32, i32, ptr, ...) @phpdbg_print(i32 noundef 3, i32 noundef %62, ptr noundef @.str.19, i32 noundef %66, i32 noundef %70, ptr noundef %73, i32 noundef %74, ptr noundef %77, ptr noundef %80)
  br label %82

82:                                               ; preds = %61, %56
  br label %83

83:                                               ; preds = %82
  %84 = load ptr, ptr %4, align 8
  %85 = getelementptr inbounds %struct._phpdbg_command_t, ptr %84, i32 1
  store ptr %85, ptr %4, align 8
  br label %51

86:                                               ; preds = %51
  br label %87

87:                                               ; preds = %86, %25
  br label %88

88:                                               ; preds = %87, %19, %13
  br label %89

89:                                               ; preds = %88
  %90 = load ptr, ptr %3, align 8
  %91 = getelementptr inbounds %struct._phpdbg_command_t, ptr %90, i32 1
  store ptr %91, ptr %3, align 8
  br label %8

92:                                               ; preds = %8
  %93 = call i32 @get_command(ptr noundef @.str.20, i64 noundef 1, ptr noundef %3, ptr noundef @phpdbg_prompt_commands)
  %94 = load i32, ptr getelementptr inbounds (%struct._zend_phpdbg_globals, ptr @phpdbg_globals, i32 0, i32 39, i64 1), align 4
  %95 = load ptr, ptr %3, align 8
  %96 = getelementptr inbounds %struct._phpdbg_command_t, ptr %95, i32 0, i32 4
  %97 = load i8, ptr %96, align 8
  %98 = sext i8 %97 to i32
  %99 = load ptr, ptr %3, align 8
  %100 = getelementptr inbounds %struct._phpdbg_command_t, ptr %99, i32 0, i32 0
  %101 = load ptr, ptr %100, align 8
  %102 = load ptr, ptr %3, align 8
  %103 = getelementptr inbounds %struct._phpdbg_command_t, ptr %102, i32 0, i32 2
  %104 = load ptr, ptr %103, align 8
  %105 = call i32 (i32, i32, ptr, ...) @phpdbg_print(i32 noundef 3, i32 noundef %94, ptr noundef @.str.21, i32 noundef %98, ptr noundef %101, ptr noundef %104)
  %106 = load ptr, ptr %3, align 8
  %107 = getelementptr inbounds %struct._phpdbg_command_t, ptr %106, i32 0, i32 1
  %108 = load i64, ptr %107, align 8
  %109 = sub i64 19, %108
  %110 = trunc i64 %109 to i32
  store i32 %110, ptr %5, align 4
  %111 = load ptr, ptr %3, align 8
  %112 = getelementptr inbounds %struct._phpdbg_command_t, ptr %111, i32 0, i32 6
  %113 = load ptr, ptr %112, align 8
  store ptr %113, ptr %4, align 8
  br label %114

114:                                              ; preds = %146, %92
  %115 = load ptr, ptr %4, align 8
  %116 = getelementptr inbounds %struct._phpdbg_command_t, ptr %115, i32 0, i32 4
  %117 = load i8, ptr %116, align 8
  %118 = icmp ne i8 %117, 0
  br i1 %118, label %119, label %149

119:                                              ; preds = %114
  %120 = load ptr, ptr %4, align 8
  %121 = getelementptr inbounds %struct._phpdbg_command_t, ptr %120, i32 0, i32 4
  %122 = load i8, ptr %121, align 8
  %123 = icmp ne i8 %122, 0
  br i1 %123, label %124, label %145

124:                                              ; preds = %119
  %125 = load i32, ptr getelementptr inbounds (%struct._zend_phpdbg_globals, ptr @phpdbg_globals, i32 0, i32 39, i64 1), align 4
  %126 = load ptr, ptr %3, align 8
  %127 = getelementptr inbounds %struct._phpdbg_command_t, ptr %126, i32 0, i32 4
  %128 = load i8, ptr %127, align 8
  %129 = sext i8 %128 to i32
  %130 = load ptr, ptr %4, align 8
  %131 = getelementptr inbounds %struct._phpdbg_command_t, ptr %130, i32 0, i32 4
  %132 = load i8, ptr %131, align 8
  %133 = sext i8 %132 to i32
  %134 = load ptr, ptr %3, align 8
  %135 = getelementptr inbounds %struct._phpdbg_command_t, ptr %134, i32 0, i32 0
  %136 = load ptr, ptr %135, align 8
  %137 = load i32, ptr %5, align 4
  %138 = load ptr, ptr %4, align 8
  %139 = getelementptr inbounds %struct._phpdbg_command_t, ptr %138, i32 0, i32 0
  %140 = load ptr, ptr %139, align 8
  %141 = load ptr, ptr %4, align 8
  %142 = getelementptr inbounds %struct._phpdbg_command_t, ptr %141, i32 0, i32 2
  %143 = load ptr, ptr %142, align 8
  %144 = call i32 (i32, i32, ptr, ...) @phpdbg_print(i32 noundef 3, i32 noundef %125, ptr noundef @.str.19, i32 noundef %129, i32 noundef %133, ptr noundef %136, i32 noundef %137, ptr noundef %140, ptr noundef %143)
  br label %145

145:                                              ; preds = %124, %119
  br label %146

146:                                              ; preds = %145
  %147 = load ptr, ptr %4, align 8
  %148 = getelementptr inbounds %struct._phpdbg_command_t, ptr %147, i32 1
  store ptr %148, ptr %4, align 8
  br label %114

149:                                              ; preds = %114
  %150 = call ptr @get_help(ptr noundef @.str.22)
  call void @pretty_print(ptr noundef %150)
  ret i32 0
}