; Function Attrs: nounwind uwtable
define hidden noundef i32 @phpdbg_do_help_aliases(ptr nocapture readnone %0) #0 {
  %2 = load i32, ptr getelementptr inbounds (%struct._zend_phpdbg_globals, ptr @phpdbg_globals, i64 0, i32 39, i64 1), align 4
  %3 = tail call i32 (i32, i32, ptr, ...) @phpdbg_print(i32 noundef 3, i32 noundef %2, ptr noundef nonnull @.str.17) #6
  %4 = load ptr, ptr @phpdbg_prompt_commands, align 8
  %.not34 = icmp eq ptr %4, null
  br i1 %.not34, label %get_command.exit, label %.lr.ph36

.lr.ph36:                                         ; preds = %1, %.loopexit
  %5 = phi ptr [ %34, %.loopexit ], [ %4, %1 ]
  %storemerge35 = phi ptr [ %33, %.loopexit ], [ @phpdbg_prompt_commands, %1 ]
  %6 = getelementptr inbounds i8, ptr %storemerge35, i64 32
  %7 = load i8, ptr %6, align 8
  %8 = sext i8 %7 to i32
  switch i8 %7, label %9 [
    i8 0, label %.loopexit
    i8 104, label %.loopexit
  ]

9:                                                ; preds = %.lr.ph36
  %10 = load i32, ptr getelementptr inbounds (%struct._zend_phpdbg_globals, ptr @phpdbg_globals, i64 0, i32 39, i64 1), align 4
  %11 = getelementptr inbounds i8, ptr %storemerge35, i64 16
  %12 = load ptr, ptr %11, align 8
  %13 = tail call i32 (i32, i32, ptr, ...) @phpdbg_print(i32 noundef 3, i32 noundef %10, ptr noundef nonnull @.str.18, i32 noundef %8, ptr noundef nonnull %5, ptr noundef %12) #6
  %14 = getelementptr inbounds i8, ptr %storemerge35, i64 48
  %15 = load ptr, ptr %14, align 8
  %.not21 = icmp eq ptr %15, null
  br i1 %.not21, label %.loopexit, label %16

16:                                               ; preds = %9
  %17 = getelementptr inbounds i8, ptr %storemerge35, i64 8
  %18 = load i64, ptr %17, align 8
  %19 = trunc i64 %18 to i32
  %20 = sub i32 19, %19
  %21 = getelementptr inbounds i8, ptr %15, i64 32
  %22 = load i8, ptr %21, align 8
  %.not2232 = icmp eq i8 %22, 0
  br i1 %.not2232, label %.loopexit, label %.lr.ph

.lr.ph:                                           ; preds = %16, %.lr.ph
  %23 = phi i8 [ %32, %.lr.ph ], [ %22, %16 ]
  %.033 = phi ptr [ %30, %.lr.ph ], [ %15, %16 ]
  %24 = load i32, ptr getelementptr inbounds (%struct._zend_phpdbg_globals, ptr @phpdbg_globals, i64 0, i32 39, i64 1), align 4
  %25 = sext i8 %23 to i32
  %26 = load ptr, ptr %.033, align 8
  %27 = getelementptr inbounds i8, ptr %.033, i64 16
  %28 = load ptr, ptr %27, align 8
  %29 = tail call i32 (i32, i32, ptr, ...) @phpdbg_print(i32 noundef 3, i32 noundef %24, ptr noundef nonnull @.str.19, i32 noundef %8, i32 noundef %25, ptr noundef nonnull %5, i32 noundef %20, ptr noundef %26, ptr noundef %28) #6
  %30 = getelementptr inbounds i8, ptr %.033, i64 80
  %31 = getelementptr inbounds i8, ptr %.033, i64 112
  %32 = load i8, ptr %31, align 8
  %.not22 = icmp eq i8 %32, 0
  br i1 %.not22, label %.loopexit, label %.lr.ph

.loopexit:                                        ; preds = %.lr.ph, %16, %.lr.ph36, %.lr.ph36, %9
  %33 = getelementptr inbounds i8, ptr %storemerge35, i64 80
  %34 = load ptr, ptr %33, align 8
  %.not = icmp eq ptr %34, null
  br i1 %.not, label %._crit_edge, label %.lr.ph36

._crit_edge:                                      ; preds = %.loopexit
  br i1 %.not34, label %get_command.exit, label %.lr.ph43.split.i

.lr.ph43.split.i:                                 ; preds = %._crit_edge, %.lr.ph43.split.i
  %.028 = phi ptr [ %.129, %.lr.ph43.split.i ], [ %33, %._crit_edge ]
  %.042.i = phi i32 [ %.1.i, %.lr.ph43.split.i ], [ 0, %._crit_edge ]
  %.02541.i = phi ptr [ %41, %.lr.ph43.split.i ], [ @phpdbg_prompt_commands, %._crit_edge ]
  %35 = getelementptr inbounds i8, ptr %.02541.i, i64 32
  %36 = load i8, ptr %35, align 8
  %37 = icmp eq i8 %36, 104
  %38 = icmp eq i32 %.042.i, 0
  %39 = select i1 %37, i1 %38, i1 false
  %.129 = select i1 %39, ptr %.02541.i, ptr %.028
  %40 = zext i1 %37 to i32
  %.1.i = add i32 %.042.i, %40
  %41 = getelementptr inbounds i8, ptr %.02541.i, i64 80
  %42 = load ptr, ptr %41, align 8
  %.not34.i = icmp eq ptr %42, null
  br i1 %.not34.i, label %get_command.exit.loopexit, label %.lr.ph43.split.i

get_command.exit.loopexit:                        ; preds = %.lr.ph43.split.i
  %.pre = load ptr, ptr %.129, align 8
  br label %get_command.exit

get_command.exit:                                 ; preds = %1, %get_command.exit.loopexit, %._crit_edge
  %43 = phi ptr [ null, %._crit_edge ], [ %.pre, %get_command.exit.loopexit ], [ null, %1 ]
  %.2 = phi ptr [ %33, %._crit_edge ], [ %.129, %get_command.exit.loopexit ], [ @phpdbg_prompt_commands, %1 ]
  %44 = load i32, ptr getelementptr inbounds (%struct._zend_phpdbg_globals, ptr @phpdbg_globals, i64 0, i32 39, i64 1), align 4
  %45 = getelementptr inbounds i8, ptr %.2, i64 32
  %46 = load i8, ptr %45, align 8
  %47 = sext i8 %46 to i32
  %48 = getelementptr inbounds i8, ptr %.2, i64 16
  %49 = load ptr, ptr %48, align 8
  %50 = tail call i32 (i32, i32, ptr, ...) @phpdbg_print(i32 noundef 3, i32 noundef %44, ptr noundef nonnull @.str.21, i32 noundef %47, ptr noundef %43, ptr noundef %49) #6
  %51 = getelementptr inbounds i8, ptr %.2, i64 8
  %52 = load i64, ptr %51, align 8
  %53 = trunc i64 %52 to i32
  %54 = sub i32 19, %53
  %55 = getelementptr inbounds i8, ptr %.2, i64 48
  %56 = load ptr, ptr %55, align 8
  %57 = getelementptr inbounds i8, ptr %56, i64 32
  %58 = load i8, ptr %57, align 8
  %.not1837 = icmp eq i8 %58, 0
  br i1 %.not1837, label %.preheader.preheader, label %.lr.ph39

.lr.ph39:                                         ; preds = %get_command.exit, %.lr.ph39
  %59 = phi i8 [ %71, %.lr.ph39 ], [ %58, %get_command.exit ]
  %.138 = phi ptr [ %69, %.lr.ph39 ], [ %56, %get_command.exit ]
  %60 = load i32, ptr getelementptr inbounds (%struct._zend_phpdbg_globals, ptr @phpdbg_globals, i64 0, i32 39, i64 1), align 4
  %61 = load i8, ptr %45, align 8
  %62 = sext i8 %61 to i32
  %63 = sext i8 %59 to i32
  %64 = load ptr, ptr %.2, align 8
  %65 = load ptr, ptr %.138, align 8
  %66 = getelementptr inbounds i8, ptr %.138, i64 16
  %67 = load ptr, ptr %66, align 8
  %68 = tail call i32 (i32, i32, ptr, ...) @phpdbg_print(i32 noundef 3, i32 noundef %60, ptr noundef nonnull @.str.19, i32 noundef %62, i32 noundef %63, ptr noundef %64, i32 noundef %54, ptr noundef %65, ptr noundef %67) #6
  %69 = getelementptr inbounds i8, ptr %.138, i64 80
  %70 = getelementptr inbounds i8, ptr %.138, i64 112
  %71 = load i8, ptr %70, align 8
  %.not18 = icmp eq i8 %71, 0
  br i1 %.not18, label %.preheader.preheader, label %.lr.ph39

.preheader.preheader:                             ; preds = %.lr.ph39, %get_command.exit
  br label %.preheader

.preheader:                                       ; preds = %.preheader.preheader, %77
  %72 = phi ptr [ %79, %77 ], [ @.str.11, %.preheader.preheader ]
  %.010.i = phi ptr [ %78, %77 ], [ @phpdbg_help_text, %.preheader.preheader ]
  %73 = tail call i32 @strcmp(ptr noundef nonnull dereferenceable(1) %72, ptr noundef nonnull dereferenceable(9) @.str.22) #7
  %.not8.i = icmp eq i32 %73, 0
  br i1 %.not8.i, label %74, label %77

74:                                               ; preds = %.preheader
  %75 = getelementptr inbounds i8, ptr %.010.i, i64 8
  %76 = load ptr, ptr %75, align 8
  br label %get_help.exit

77:                                               ; preds = %.preheader
  %78 = getelementptr inbounds i8, ptr %.010.i, i64 16
  %79 = load ptr, ptr %78, align 8
  %.not.i = icmp eq ptr %79, null
  br i1 %.not.i, label %get_help.exit, label %.preheader

get_help.exit:                                    ; preds = %77, %74
  %.06.i = phi ptr [ %76, %74 ], [ @.str.12, %77 ]
  tail call fastcc void @pretty_print(ptr noundef %.06.i)
  ret i32 0
}